target datalayout = "e-m:e-p270:32:32-p271:32:32-p272:64:64-i64:64-i128:128-f80:128-n8:16:32:64-S128"
target triple = "x86_64-pc-linux-gnu"

%"class.pbrt::Medium" = type { %"class.pbrt::TaggedPointer" }
%"class.pbrt::TaggedPointer" = type { i64 }
%"class.pbrt::Point3.8" = type { %"class.pbrt::Tuple3.9" }
%"class.pbrt::Tuple3.9" = type { float, float, float }
%"class.pbrt::LightBase" = type { i32, %"class.pbrt::Transform", %"struct.pbrt::MediumInterface" }
%"class.pbrt::Transform" = type { %"class.pbrt::SquareMatrix.10", %"class.pbrt::SquareMatrix.10" }
%"class.pbrt::SquareMatrix.10" = type { [4 x [4 x float]] }
%"struct.pbrt::MediumInterface" = type { %"class.pbrt::Medium", %"class.pbrt::Medium" }
%"class.pbrt::UniformInfiniteLight" = type <{ %"class.pbrt::LightBase", ptr, float, %"class.pbrt::Point3.8", float, [4 x i8] }>

; Function Attrs: inlinehint mustprogress nounwind uwtable
define linkonce_odr dso_local noundef float @_ZN4pbrt3SqrIfEET_S1_(float noundef %0) #3 comdat {
  %2 = alloca float, align 4
  store float %0, ptr %2, align 4, !tbaa !9
  %3 = load float, ptr %2, align 4, !tbaa !9
  %4 = load float, ptr %2, align 4, !tbaa !9
  %5 = fmul float %3, %4
  ret float %5
}

; Function Attrs: inlinehint mustprogress nounwind uwtable
define linkonce_odr dso_local noundef float @_ZN4pbrt16UniformSpherePDFEv() #3 comdat {
  ret float 0x3FB45F3060000000
}

; Function Attrs: mustprogress uwtable
define dso_local void @_ZNK4pbrt20UniformInfiniteLight6PDF_LeERKNS_3RayEPfS4_(ptr noundef nonnull align 8 dereferenceable(180) %0, ptr noundef nonnull align 8 dereferenceable(40) %1, ptr noundef %2, ptr noundef %3) #1 align 2 {
  %5 = alloca ptr, align 8
  %6 = alloca ptr, align 8
  %7 = alloca ptr, align 8
  %8 = alloca ptr, align 8
  store ptr %0, ptr %5, align 8, !tbaa !387
  store ptr %1, ptr %6, align 8, !tbaa !28
  store ptr %2, ptr %7, align 8, !tbaa !22
  store ptr %3, ptr %8, align 8, !tbaa !22
  %9 = load ptr, ptr %5, align 8
  %10 = call noundef float @_ZN4pbrt16UniformSpherePDFEv()
  %11 = load ptr, ptr %8, align 8, !tbaa !22
  store float %10, ptr %11, align 4, !tbaa !9
  %12 = getelementptr inbounds nuw %"class.pbrt::UniformInfiniteLight", ptr %9, i32 0, i32 4
  %13 = load float, ptr %12, align 8, !tbaa !392
  %14 = call noundef float @_ZN4pbrt3SqrIfEET_S1_(float noundef %13)
  %15 = fmul float 0x400921FB60000000, %14
  %16 = fdiv float 1.000000e+00, %15
  %17 = load ptr, ptr %7, align 8, !tbaa !22
  store float %16, ptr %17, align 4, !tbaa !9
  ret void
}